target datalayout = "e-m:e-p270:32:32-p271:32:32-p272:64:64-i64:64-i128:128-f80:128-n8:16:32:64-S128"
target triple = "x86_64-pc-linux-gnu"

%struct._GC_arrays = type { i64, i64, i64, ptr, i64, i64, i64, i64, i64, i64, i64, i64, i64, i64, ptr, ptr, ptr, ptr, ptr, ptr, ptr, ptr, i32, i32, i32, i64, i64, i64, i64, i64, ptr, ptr, ptr, i64, i64, i32, i64, i64, ptr, i64, %struct.dl_hashtbl_s, %struct.dl_hashtbl_s, %struct.fnlz_roots_s, i32, ptr, i64, i64, i32, i32, i64, i64, i64, ptr, [64 x ptr], [8 x i8], [64 x ptr], [129 x ptr], [129 x ptr], [129 x ptr], [129 x ptr], [2049 x i64], [129 x ptr], [4096 x i8], [4096 x i64], [4096 x i64], ptr, [2048 x %struct.roots], [512 x %struct.exclusion], [2048 x ptr] }
%struct.dl_hashtbl_s = type { ptr, i64, i32 }
%struct.fnlz_roots_s = type { ptr, ptr }
%struct.roots = type { ptr, ptr, ptr, i32 }
%struct.exclusion = type { ptr, ptr }
%struct.bi = type { [1024 x ptr], ptr, ptr, i64, ptr }
%struct.hblkhdr = type { ptr, ptr, ptr, i8, i8, i16, i64, i64, ptr, i64, %union.anon }
%union.anon = type { i64, [256 x i8] }

@GC_all_interior_pointers = global i32 1, align 4
@GC_arrays = global %struct._GC_arrays zeroinitializer, align 8
@GC_manual_vdb = internal global i32 0, align 4
@GC_explicit_kind = internal global i32 0, align 4

; Function Attrs: nounwind uwtable
define internal ptr @GC_find_header(ptr noundef %0) #0 {
  %2 = alloca ptr, align 8
  %3 = alloca ptr, align 8
  %4 = alloca ptr, align 8
  %5 = alloca ptr, align 8
  %6 = alloca i64, align 8
  %7 = alloca ptr, align 8
  store ptr %0, ptr %2, align 8
  br label %8

8:                                                ; preds = %1
  br label %9

9:                                                ; preds = %8
  br label %10

10:                                               ; preds = %9
  %11 = load ptr, ptr %2, align 8
  %12 = ptrtoint ptr %11 to i64
  %13 = lshr i64 %12, 22
  store i64 %13, ptr %6, align 8
  %14 = load i64, ptr %6, align 8
  %15 = and i64 %14, 2047
  %16 = getelementptr inbounds %struct._GC_arrays, ptr @GC_arrays, i32 0, i32 68
  %17 = getelementptr inbounds [2048 x ptr], ptr %16, i64 0, i64 %15
  %18 = load ptr, ptr %17, align 8
  store ptr %18, ptr %7, align 8
  br label %19

19:                                               ; preds = %32, %10
  %20 = load ptr, ptr %7, align 8
  %21 = getelementptr inbounds %struct.bi, ptr %20, i32 0, i32 3
  %22 = load i64, ptr %21, align 8
  %23 = load i64, ptr %6, align 8
  %24 = icmp ne i64 %22, %23
  br i1 %24, label %25, label %30

25:                                               ; preds = %19
  %26 = load ptr, ptr %7, align 8
  %27 = getelementptr inbounds %struct._GC_arrays, ptr @GC_arrays, i32 0, i32 30
  %28 = load ptr, ptr %27, align 8
  %29 = icmp ne ptr %26, %28
  br label %30

30:                                               ; preds = %25, %19
  %31 = phi i1 [ false, %19 ], [ %29, %25 ]
  br i1 %31, label %32, label %36

32:                                               ; preds = %30
  %33 = load ptr, ptr %7, align 8
  %34 = getelementptr inbounds %struct.bi, ptr %33, i32 0, i32 4
  %35 = load ptr, ptr %34, align 8
  store ptr %35, ptr %7, align 8
  br label %19, !llvm.loop !9

36:                                               ; preds = %30
  %37 = load ptr, ptr %7, align 8
  store ptr %37, ptr %5, align 8
  br label %38

38:                                               ; preds = %36
  %39 = load ptr, ptr %5, align 8
  %40 = getelementptr inbounds %struct.bi, ptr %39, i32 0, i32 0
  %41 = load ptr, ptr %2, align 8
  %42 = ptrtoint ptr %41 to i64
  %43 = lshr i64 %42, 12
  %44 = and i64 %43, 1023
  %45 = getelementptr inbounds [1024 x ptr], ptr %40, i64 0, i64 %44
  store ptr %45, ptr %4, align 8
  br label %46

46:                                               ; preds = %38
  %47 = load ptr, ptr %4, align 8
  %48 = load ptr, ptr %47, align 8
  store ptr %48, ptr %3, align 8
  br label %49

49:                                               ; preds = %46
  %50 = load ptr, ptr %3, align 8
  ret ptr %50
}

; Function Attrs: nounwind uwtable
define internal void @GC_dirty_inner(ptr noundef %0) #0 {
  %2 = alloca ptr, align 8
  %3 = alloca i64, align 8
  %4 = alloca i64, align 8
  %5 = alloca i64, align 8
  store ptr %0, ptr %2, align 8
  %6 = load ptr, ptr %2, align 8
  %7 = ptrtoint ptr %6 to i64
  %8 = lshr i64 %7, 12
  %9 = and i64 %8, 262143
  store i64 %9, ptr %3, align 8
  %10 = load i64, ptr %3, align 8
  %11 = lshr i64 %10, 6
  %12 = getelementptr inbounds %struct._GC_arrays, ptr @GC_arrays, i32 0, i32 64
  %13 = getelementptr inbounds [4096 x i64], ptr %12, i64 0, i64 %11
  %14 = load i64, ptr %3, align 8
  %15 = and i64 %14, 63
  %16 = shl i64 1, %15
  store i64 %16, ptr %4, align 8
  %17 = load i64, ptr %4, align 8
  %18 = atomicrmw volatile or ptr %13, i64 %17 monotonic, align 8
  %19 = or i64 %18, %17
  store i64 %19, ptr %5, align 8
  ret void
}

; Function Attrs: nounwind uwtable
define i64 @GC_size(ptr noundef nonnull %0) #0 {
  %2 = alloca ptr, align 8
  %3 = alloca ptr, align 8
  store ptr %0, ptr %2, align 8
  %4 = load ptr, ptr %2, align 8
  %5 = ptrtoint ptr %4 to i64
  %6 = inttoptr i64 %5 to ptr
  %7 = call ptr @GC_find_header(ptr noundef %6)
  store ptr %7, ptr %3, align 8
  %8 = load ptr, ptr %3, align 8
  %9 = getelementptr inbounds %struct.hblkhdr, ptr %8, i32 0, i32 6
  %10 = load i64, ptr %9, align 8
  ret i64 %10
}

; Function Attrs: nounwind allocsize(0) uwtable
define noalias ptr @GC_malloc_explicitly_typed(i64 noundef %0, i64 noundef %1) #3 {
  %3 = alloca ptr, align 8
  %4 = alloca i64, align 8
  %5 = alloca i64, align 8
  %6 = alloca ptr, align 8
  %7 = alloca i64, align 8
  %8 = alloca i64, align 8
  store i64 %0, ptr %4, align 8
  store i64 %1, ptr %5, align 8
  %9 = load i64, ptr %4, align 8
  %10 = icmp eq i64 0, %9
  %11 = zext i1 %10 to i32
  %12 = sext i32 %11 to i64
  %13 = icmp ne i64 %12, 0
  br i1 %13, label %14, label %15

14:                                               ; preds = %2
  store i64 1, ptr %4, align 8
  br label %15

15:                                               ; preds = %14, %2
  %16 = load i64, ptr %4, align 8
  %17 = load i32, ptr @GC_all_interior_pointers, align 4
  %18 = sext i32 %17 to i64
  %19 = sub i64 8, %18
  %20 = sub i64 -1, %19
  %21 = icmp ult i64 %16, %20
  %22 = zext i1 %21 to i32
  %23 = sext i32 %22 to i64
  %24 = icmp ne i64 %23, 0
  br i1 %24, label %25, label %31

25:                                               ; preds = %15
  %26 = load i64, ptr %4, align 8
  %27 = load i32, ptr @GC_all_interior_pointers, align 4
  %28 = sext i32 %27 to i64
  %29 = sub i64 8, %28
  %30 = add i64 %26, %29
  br label %32

31:                                               ; preds = %15
  br label %32

32:                                               ; preds = %31, %25
  %33 = phi i64 [ %30, %25 ], [ -1, %31 ]
  %34 = load i32, ptr @GC_explicit_kind, align 4
  %35 = call noalias ptr @GC_malloc_kind(i64 noundef %33, i32 noundef %34) #22
  store ptr %35, ptr %6, align 8
  %36 = load ptr, ptr %6, align 8
  %37 = icmp eq ptr null, %36
  %38 = zext i1 %37 to i32
  %39 = sext i32 %38 to i64
  %40 = icmp ne i64 %39, 0
  br i1 %40, label %41, label %42

41:                                               ; preds = %32
  store ptr null, ptr %3, align 8
  br label %64

42:                                               ; preds = %32
  %43 = load ptr, ptr %6, align 8
  %44 = call i64 @GC_size(ptr noundef %43)
  %45 = lshr i64 %44, 4
  %46 = shl i64 %45, 1
  store i64 %46, ptr %7, align 8
  %47 = load ptr, ptr %6, align 8
  %48 = load i64, ptr %7, align 8
  %49 = getelementptr inbounds i64, ptr %47, i64 %48
  %50 = getelementptr inbounds i64, ptr %49, i64 -1
  %51 = load i64, ptr %5, align 8
  store i64 %51, ptr %8, align 8
  %52 = load i64, ptr %8, align 8
  store atomic volatile i64 %52, ptr %50 release, align 8
  %53 = load i32, ptr @GC_manual_vdb, align 4
  %54 = icmp ne i32 %53, 0
  br i1 %54, label %55, label %60

55:                                               ; preds = %42
  %56 = load ptr, ptr %6, align 8
  %57 = load i64, ptr %7, align 8
  %58 = getelementptr inbounds i64, ptr %56, i64 %57
  %59 = getelementptr inbounds i64, ptr %58, i64 -1
  call void @GC_dirty_inner(ptr noundef %59)
  br label %61

60:                                               ; preds = %42
  br label %61

61:                                               ; preds = %60, %55
  %62 = load i64, ptr %5, align 8
  call void asm sideeffect " ", "X,~{memory},~{dirflag},~{fpsr},~{flags}"(i64 %62) #18, !srcloc !71
  %63 = load ptr, ptr %6, align 8
  store ptr %63, ptr %3, align 8
  br label %64

64:                                               ; preds = %61, %41
  %65 = load ptr, ptr %3, align 8
  ret ptr %65
}