; Function Attrs: nounwind allocsize(0) uwtable
define noalias ptr @GC_malloc_explicitly_typed(i64 noundef %0, i64 noundef %1) local_unnamed_addr #5 {
  %spec.store.select = tail call i64 @llvm.umax.i64(i64 %0, i64 1)
  %3 = load i32, ptr @GC_all_interior_pointers, align 4
  %4 = sext i32 %3 to i64
  %5 = add nsw i64 %4, -9
  %6 = icmp ult i64 %spec.store.select, %5
  %reass.sub = add i64 %spec.store.select, 8
  %7 = sub i64 %reass.sub, %4
  %8 = select i1 %6, i64 %7, i64 -1
  %9 = load i32, ptr @GC_explicit_kind, align 4
  %10 = tail call noalias ptr @GC_malloc_kind(i64 noundef %8, i32 noundef %9) #51
  %11 = icmp eq ptr %10, null
  br i1 %11, label %45, label %12

12:                                               ; preds = %2
  %13 = ptrtoint ptr %10 to i64
  %14 = lshr i64 %13, 22
  %15 = and i64 %14, 2047
  %16 = getelementptr inbounds nuw [2048 x ptr], ptr getelementptr inbounds nuw (i8, ptr @GC_arrays, i64 166400), i64 0, i64 %15
  %17 = load ptr, ptr getelementptr inbounds nuw (i8, ptr @GC_arrays, i64 232), align 8
  br label %18

18:                                               ; preds = %18, %12
  %.0.in.i.i = phi ptr [ %16, %12 ], [ %24, %18 ]
  %.0.i.i = load ptr, ptr %.0.in.i.i, align 8
  %19 = getelementptr inbounds nuw i8, ptr %.0.i.i, i64 8208
  %20 = load i64, ptr %19, align 8
  %21 = icmp ne i64 %20, %14
  %22 = icmp ne ptr %.0.i.i, %17
  %23 = select i1 %21, i1 %22, i1 false
  %24 = getelementptr inbounds nuw i8, ptr %.0.i.i, i64 8216
  br i1 %23, label %18, label %GC_size.exit, !llvm.loop !15

GC_size.exit:                                     ; preds = %18
  %25 = lshr i64 %13, 12
  %26 = and i64 %25, 1023
  %27 = getelementptr inbounds nuw [1024 x ptr], ptr %.0.i.i, i64 0, i64 %26
  %28 = load ptr, ptr %27, align 8
  %29 = getelementptr inbounds nuw i8, ptr %28, i64 32
  %30 = load i64, ptr %29, align 8
  %31 = lshr i64 %30, 3
  %32 = and i64 %31, 2305843009213693950
  %33 = getelementptr inbounds nuw i64, ptr %10, i64 %32
  %34 = getelementptr inbounds i8, ptr %33, i64 -8
  store atomic volatile i64 %1, ptr %34 release, align 8
  %.b = load i1, ptr @GC_manual_vdb, align 4
  br i1 %.b, label %35, label %44

35:                                               ; preds = %GC_size.exit
  %36 = ptrtoint ptr %34 to i64
  %37 = lshr i64 %36, 12
  %38 = lshr i64 %36, 18
  %39 = and i64 %38, 4095
  %40 = getelementptr inbounds nuw [4096 x i64], ptr getelementptr inbounds nuw (i8, ptr @GC_arrays, i64 59896), i64 0, i64 %39
  %41 = and i64 %37, 63
  %42 = shl nuw i64 1, %41
  %43 = atomicrmw volatile or ptr %40, i64 %42 monotonic, align 8
  br label %44

44:                                               ; preds = %GC_size.exit, %35
  tail call void asm sideeffect " ", "X,~{memory},~{dirflag},~{fpsr},~{flags}"(i64 %1) #41, !srcloc !104
  br label %45

45:                                               ; preds = %2, %44
  ret ptr %10
}